(dp0
S'failed'
p1
(lp2
S'7'
p3
asS'source_names'
p4
(lp5
S'.'
p6
asS'ids'
p7
(dp8
I1
(S'/home/bbrieber/.qgis2/python/plugins/KnowrobExporter/test/test_init.py'
p9
S'KnowrobExporter.test.test_init'
p10
S'TestInit.test_read_init'
p11
tp12
sI2
(S'/home/bbrieber/.qgis2/python/plugins/KnowrobExporter/test/test_qgis_environment.py'
p13
S'KnowrobExporter.test.test_qgis_environment'
p14
S'QGISTest.test_projection'
p15
tp16
sI3
(S'/home/bbrieber/.qgis2/python/plugins/KnowrobExporter/test/test_qgis_environment.py'
p17
g14
S'QGISTest.test_qgis_environment'
p18
tp19
sI4
(S'/home/bbrieber/.qgis2/python/plugins/KnowrobExporter/test/test_qgis_knowrob_exporter_dialog.py'
p20
S'KnowrobExporter.test.test_qgis_knowrob_exporter_dialog'
p21
S'KnowrobExporterDialogTest.test_dialog_cancel'
p22
tp23
sI5
(S'/home/bbrieber/.qgis2/python/plugins/KnowrobExporter/test/test_qgis_knowrob_exporter_dialog.py'
p24
g21
S'KnowrobExporterDialogTest.test_dialog_ok'
p25
tp26
sI6
(S'/home/bbrieber/.qgis2/python/plugins/KnowrobExporter/test/test_resources.py'
p27
S'KnowrobExporter.test.test_resources'
p28
S'KnowrobExporterDialogTest.test_icon_png'
p29
tp30
sI7
(S'/home/bbrieber/.qgis2/python/plugins/KnowrobExporter/test/test_translations.py'
p31
S'KnowrobExporter.test.test_translations'
p32
S'SafeTranslationsTest.test_qgis_translations'
p33
tp34
ss.